; Function Attrs: nounwind uwtable
define internal fastcc ptr @mi_segment_page_clear(ptr noundef %0, ptr noundef %1) unnamed_addr #4 {
  %3 = ptrtoint ptr %0 to i64
  %4 = add i64 %3, -1
  %5 = and i64 %4, -33554432
  %6 = inttoptr i64 %5 to ptr
  %7 = icmp slt i64 %4, 33554432
  %8 = select i1 %7, ptr null, ptr %6
  %9 = getelementptr inbounds nuw i8, ptr %0, i64 10
  %10 = load i16, ptr %9, align 2, !tbaa !39
  %11 = zext i16 %10 to i64
  %12 = getelementptr i8, ptr %0, i64 40
  %.val = load i64, ptr %12, align 8, !tbaa !14
  %13 = mul i64 %.val, %11
  %14 = getelementptr inbounds nuw i8, ptr %1, i64 912
  %15 = load ptr, ptr %14, align 8, !tbaa !40
  %16 = getelementptr inbounds nuw i8, ptr %15, i64 192
  tail call void @_mi_stat_decrease(ptr noundef nonnull %16, i64 noundef %13) #11
  %17 = load ptr, ptr %14, align 8, !tbaa !40
  %18 = getelementptr inbounds nuw i8, ptr %17, i64 32
  tail call void @_mi_stat_decrease(ptr noundef nonnull %18, i64 noundef 1) #11
  %19 = getelementptr inbounds nuw i8, ptr %6, i64 24
  %20 = load i8, ptr %19, align 8, !tbaa !43, !range !30, !noundef !31
  %21 = trunc nuw i8 %20 to i1
  br i1 %21, label %22, label %56

22:                                               ; preds = %2
  %23 = tail call zeroext i1 @mi_option_is_enabled(i32 noundef 11) #11
  br i1 %23, label %24, label %56

24:                                               ; preds = %22
  %.val.i = load i64, ptr %12, align 8, !tbaa !14
  %25 = getelementptr inbounds nuw i8, ptr %8, i64 288
  %26 = ptrtoint ptr %25 to i64
  %27 = sub i64 %3, %26
  %28 = sdiv exact i64 %27, 96
  %29 = load i32, ptr %0, align 8, !tbaa !22
  %30 = zext i32 %29 to i64
  %31 = shl nuw nsw i64 %30, 16
  %32 = shl i64 %28, 16
  %33 = getelementptr inbounds nuw i8, ptr %8, i64 %32
  %34 = add i64 %.val.i, -1
  %or.cond.i.i = icmp ult i64 %34, 131072
  br i1 %or.cond.i.i, label %35, label %41

35:                                               ; preds = %24
  %36 = ptrtoint ptr %33 to i64
  %37 = urem i64 %36, %.val.i
  %38 = sub nsw i64 %.val.i, %37
  %39 = icmp uge i64 %38, %.val.i
  %40 = add nuw nsw i64 %38, %.val.i
  %.not.i.i = icmp ult i64 %31, %40
  %or.cond35.i.i = select i1 %39, i1 true, i1 %.not.i.i
  %.1.i.i = select i1 %or.cond35.i.i, i64 0, i64 %38
  br label %41

41:                                               ; preds = %35, %24
  %.0.i.i = phi i64 [ %.1.i.i, %35 ], [ 0, %24 ]
  %42 = icmp ugt i64 %.val.i, 7
  br i1 %42, label %43, label %_mi_segment_page_start.exit

43:                                               ; preds = %41
  %44 = icmp ult i64 %.val.i, 65
  br i1 %44, label %45, label %48

45:                                               ; preds = %43
  %46 = mul nuw nsw i64 %.val.i, 3
  %47 = add nuw nsw i64 %.0.i.i, %46
  br label %_mi_segment_page_start.exit

48:                                               ; preds = %43
  %49 = icmp ult i64 %.val.i, 513
  %50 = select i1 %49, i64 %.val.i, i64 0
  %spec.select.i.i = add nuw nsw i64 %.0.i.i, %50
  br label %_mi_segment_page_start.exit

_mi_segment_page_start.exit:                      ; preds = %41, %45, %48
  %.2.i.i = phi i64 [ %47, %45 ], [ %.0.i.i, %41 ], [ %spec.select.i.i, %48 ]
  %51 = add nsw i64 %.2.i.i, 15
  %52 = and i64 %51, -16
  %53 = sub i64 %31, %52
  %54 = getelementptr inbounds nuw i8, ptr %33, i64 %52
  %55 = tail call zeroext i1 @_mi_os_reset(ptr noundef %54, i64 noundef %53) #11
  br label %56

56:                                               ; preds = %_mi_segment_page_start.exit, %22, %2
  %57 = getelementptr inbounds nuw i8, ptr %0, i64 8
  %58 = load i8, ptr %57, align 8
  %59 = and i8 %58, -3
  store i8 %59, ptr %57, align 8
  %60 = getelementptr inbounds nuw i8, ptr %0, i64 35
  %61 = load i8, ptr %60, align 1, !tbaa !44
  tail call void @llvm.memset.p0.i64(ptr noundef nonnull align 1 dereferenceable(86) %9, i8 0, i64 86, i1 false)
  store i64 1, ptr %12, align 8, !tbaa !14
  store i8 %61, ptr %60, align 1, !tbaa !44
  %62 = tail call fastcc ptr @mi_segment_span_free_coalesce(ptr noundef nonnull %0, ptr noundef nonnull %1) #10
  %63 = getelementptr inbounds nuw i8, ptr %8, i64 216
  %64 = load i64, ptr %63, align 8, !tbaa !37
  %65 = add i64 %64, -1
  store i64 %65, ptr %63, align 8, !tbaa !37
  ret ptr %62
}